; Function Attrs: mustprogress uwtable
define dso_local void @_ZN5vcpkg4Json6ReaderC2ENS_10StringViewE(ptr noundef nonnull align 8 dereferenceable(120) %0, ptr %1, i64 %2) unnamed_addr #8 align 2 personality ptr @__gxx_personality_v0 {
  %4 = alloca %"class.std::allocator", align 1
  %5 = getelementptr inbounds i8, ptr %0, i64 48
  tail call void @llvm.memset.p0.i64(ptr noundef nonnull align 8 dereferenceable(48) %0, i8 0, i64 48, i1 false)
  call void @_ZNSaIcEC1Ev(ptr noundef nonnull align 1 dereferenceable(1) %4) #26
  invoke void @_ZNSt7__cxx1112basic_stringIcSt11char_traitsIcESaIcEEC1EPKcmRKS3_(ptr noundef nonnull align 8 dereferenceable(32) %5, ptr noundef %1, i64 noundef %2, ptr noundef nonnull align 1 dereferenceable(1) %4)
          to label %6 unwind label %10

6:                                                ; preds = %3
  call void @_ZNSaIcED1Ev(ptr noundef nonnull align 1 dereferenceable(1) %4) #26
  %7 = getelementptr inbounds i8, ptr %0, i64 80
  call void @llvm.memset.p0.i64(ptr noundef nonnull align 8 dereferenceable(24) %7, i8 0, i64 24, i1 false)
  %8 = getelementptr inbounds i8, ptr %0, i64 104
  store ptr @_ZN5vcpkg4JsonL19g_json_reader_statsE, ptr %8, align 8
  %9 = getelementptr inbounds i8, ptr %0, i64 112
  call void @_ZN5vcpkg12ElapsedTimerC1Ev(ptr noundef nonnull align 8 dereferenceable(8) %9) #26
  ret void

10:                                               ; preds = %3
  %11 = landingpad { ptr, i32 }
          cleanup
  %12 = getelementptr inbounds i8, ptr %0, i64 24
  call void @_ZNSaIcED1Ev(ptr noundef nonnull align 1 dereferenceable(1) %4) #26
  call void @_ZNSt6vectorIN5vcpkg15LocalizedStringESaIS1_EED2Ev(ptr noundef nonnull align 8 dereferenceable(24) %12) #26
  call void @_ZNSt6vectorIN5vcpkg15LocalizedStringESaIS1_EED2Ev(ptr noundef nonnull align 8 dereferenceable(24) %0) #26
  resume { ptr, i32 } %11
}